(lp0
(S'elfflags'
p1
ccopy_reg
_reconstructor
p2
(cino.utils
SpaceList
p3
c__builtin__
list
p4
(lp5
S'-Os'
p6
aS'-Wl,--gc-sections'
p7
aS'-mmcu=atmega328p'
p8
atp9
Rp10
tp11
a(S'cc'
p12
S'/Applications/Arduino.app/Contents/Resources/Java/hardware/tools/avr/bin/avr-gcc'
p13
tp14
a(S'arduino_libraries_dir'
p15
S'/Applications/Arduino.app/Contents/Resources/Java/libraries'
p16
tp17
a(S'avrdude'
p18
S'/Applications/Arduino.app/Contents/Resources/Java/hardware/tools/avr/bin/avrdude'
p19
tp20
a(S'ar'
p21
S'/Applications/Arduino.app/Contents/Resources/Java/hardware/tools/avr/bin/avr-ar'
p22
tp23
a(S'names'
p24
(dp25
S'cpp'
p26
S'%s.cpp'
p27
sS'obj'
p28
S'%s.o'
p29
sS'deps'
p30
S'%s.d'
p31
sS'lib'
p32
S'lib%s.a'
p33
stp34
a(S'arduino_lib_version'
p35
g2
(cino.environment
Version
p36
c__builtin__
tuple
p37
(I1
I0
tp38
tp39
Rp40
tp41
a(S'objcopy'
p42
S'/Applications/Arduino.app/Contents/Resources/Java/hardware/tools/avr/bin/avr-objcopy'
p43
tp44
a(S'board_models'
p45
cino.environment
BoardModels
p46
((lp47
(lp48
S'uno'
p49
a(dp50
S'build'
p51
(dp52
S'core'
p53
S'arduino'
p54
sS'mcu'
p55
S'atmega328p'
p56
sS'f_cpu'
p57
S'16000000L'
p58
sS'variant'
p59
S'standard'
p60
ssS'bootloader'
p61
(dp62
S'extended_fuses'
p63
S'0x05'
p64
sS'high_fuses'
p65
S'0xde'
p66
sS'low_fuses'
p67
S'0xff'
p68
sS'lock_bits'
p69
S'0x0F'
p70
sS'file'
p71
S'optiboot_atmega328.hex'
p72
sS'path'
p73
S'optiboot'
p74
sS'unlock_bits'
p75
S'0x3F'
p76
ssS'upload'
p77
(dp78
S'protocol'
p79
S'arduino'
p80
sS'maximum_size'
p81
S'32256'
p82
sS'speed'
p83
S'115200'
p84
ssS'name'
p85
S'Arduino Uno'
p86
saa(lp87
S'atmega328'
p88
a(dp89
S'build'
p90
(dp91
S'core'
p92
S'arduino'
p93
sS'mcu'
p94
S'atmega328p'
p95
sS'f_cpu'
p96
S'16000000L'
p97
sS'variant'
p98
S'standard'
p99
ssS'bootloader'
p100
(dp101
S'extended_fuses'
p102
S'0x05'
p103
sS'high_fuses'
p104
S'0xDA'
p105
sS'low_fuses'
p106
S'0xFF'
p107
sS'lock_bits'
p108
S'0x0F'
p109
sS'file'
p110
S'ATmegaBOOT_168_atmega328.hex'
p111
sS'path'
p112
S'atmega'
p113
sS'unlock_bits'
p114
S'0x3F'
p115
ssS'upload'
p116
(dp117
S'protocol'
p118
S'arduino'
p119
sS'maximum_size'
p120
S'30720'
p121
sS'speed'
p122
S'57600'
p123
ssS'name'
p124
S'Arduino Duemilanove w/ ATmega328'
p125
saa(lp126
S'diecimila'
p127
a(dp128
S'build'
p129
(dp130
S'core'
p131
S'arduino'
p132
sS'mcu'
p133
S'atmega168'
p134
sS'f_cpu'
p135
S'16000000L'
p136
sS'variant'
p137
S'standard'
p138
ssS'bootloader'
p139
(dp140
S'extended_fuses'
p141
S'0x00'
p142
sS'high_fuses'
p143
S'0xdd'
p144
sS'low_fuses'
p145
S'0xff'
p146
sS'lock_bits'
p147
S'0x0F'
p148
sS'file'
p149
S'ATmegaBOOT_168_diecimila.hex'
p150
sS'path'
p151
S'atmega'
p152
sS'unlock_bits'
p153
S'0x3F'
p154
ssS'upload'
p155
(dp156
S'protocol'
p157
S'arduino'
p158
sS'maximum_size'
p159
S'14336'
p160
sS'speed'
p161
S'19200'
p162
ssS'name'
p163
S'Arduino Diecimila or Duemilanove w/ ATmega168'
p164
saa(lp165
S'nano328'
p166
a(dp167
S'build'
p168
(dp169
S'core'
p170
S'arduino'
p171
sS'mcu'
p172
S'atmega328p'
p173
sS'f_cpu'
p174
S'16000000L'
p175
sS'variant'
p176
S'eightanaloginputs'
p177
ssS'bootloader'
p178
(dp179
S'extended_fuses'
p180
S'0x05'
p181
sS'high_fuses'
p182
S'0xDA'
p183
sS'low_fuses'
p184
S'0xFF'
p185
sS'lock_bits'
p186
S'0x0F'
p187
sS'file'
p188
S'ATmegaBOOT_168_atmega328.hex'
p189
sS'path'
p190
S'atmega'
p191
sS'unlock_bits'
p192
S'0x3F'
p193
ssS'upload'
p194
(dp195
S'protocol'
p196
S'arduino'
p197
sS'maximum_size'
p198
S'30720'
p199
sS'speed'
p200
S'57600'
p201
ssS'name'
p202
S'Arduino Nano w/ ATmega328'
p203
saa(lp204
S'nano'
p205
a(dp206
S'build'
p207
(dp208
S'core'
p209
S'arduino'
p210
sS'mcu'
p211
S'atmega168'
p212
sS'f_cpu'
p213
S'16000000L'
p214
sS'variant'
p215
S'eightanaloginputs'
p216
ssS'bootloader'
p217
(dp218
S'extended_fuses'
p219
S'0x00'
p220
sS'high_fuses'
p221
S'0xdd'
p222
sS'low_fuses'
p223
S'0xff'
p224
sS'lock_bits'
p225
S'0x0F'
p226
sS'file'
p227
S'ATmegaBOOT_168_diecimila.hex'
p228
sS'path'
p229
S'atmega'
p230
sS'unlock_bits'
p231
S'0x3F'
p232
ssS'upload'
p233
(dp234
S'protocol'
p235
S'arduino'
p236
sS'maximum_size'
p237
S'14336'
p238
sS'speed'
p239
S'19200'
p240
ssS'name'
p241
S'Arduino Nano w/ ATmega168'
p242
saa(lp243
S'mega2560'
p244
a(dp245
S'build'
p246
(dp247
S'core'
p248
S'arduino'
p249
sS'mcu'
p250
S'atmega2560'
p251
sS'f_cpu'
p252
S'16000000L'
p253
sS'variant'
p254
S'mega'
p255
ssS'bootloader'
p256
(dp257
S'extended_fuses'
p258
S'0xFD'
p259
sS'high_fuses'
p260
S'0xD8'
p261
sS'low_fuses'
p262
S'0xFF'
p263
sS'lock_bits'
p264
S'0x0F'
p265
sS'file'
p266
S'stk500boot_v2_mega2560.hex'
p267
sS'path'
p268
S'stk500v2'
p269
sS'unlock_bits'
p270
S'0x3F'
p271
ssS'upload'
p272
(dp273
S'protocol'
p274
S'wiring'
p275
sS'maximum_size'
p276
S'258048'
p277
sS'speed'
p278
S'115200'
p279
ssS'name'
p280
S'Arduino Mega 2560 or Mega ADK'
p281
saa(lp282
S'mega'
p283
a(dp284
S'build'
p285
(dp286
S'core'
p287
S'arduino'
p288
sS'mcu'
p289
S'atmega1280'
p290
sS'f_cpu'
p291
S'16000000L'
p292
sS'variant'
p293
S'mega'
p294
ssS'bootloader'
p295
(dp296
S'extended_fuses'
p297
S'0xF5'
p298
sS'high_fuses'
p299
S'0xDA'
p300
sS'low_fuses'
p301
S'0xFF'
p302
sS'lock_bits'
p303
S'0x0F'
p304
sS'file'
p305
S'ATmegaBOOT_168_atmega1280.hex'
p306
sS'path'
p307
S'atmega'
p308
sS'unlock_bits'
p309
S'0x3F'
p310
ssS'upload'
p311
(dp312
S'protocol'
p313
S'arduino'
p314
sS'maximum_size'
p315
S'126976'
p316
sS'speed'
p317
S'57600'
p318
ssS'name'
p319
S'Arduino Mega (ATmega1280)'
p320
saa(lp321
S'leonardo'
p322
a(dp323
S'build'
p324
(dp325
S'core'
p326
S'arduino'
p327
sS'f_cpu'
p328
S'16000000L'
p329
sS'vid'
p330
S'0x2341'
p331
sS'pid'
p332
S'0x8036'
p333
sS'variant'
p334
S'leonardo'
p335
sS'mcu'
p336
S'atmega32u4'
p337
ssS'bootloader'
p338
(dp339
S'extended_fuses'
p340
S'0xcb'
p341
sS'high_fuses'
p342
S'0xd8'
p343
sS'low_fuses'
p344
S'0xff'
p345
sS'lock_bits'
p346
S'0x2F'
p347
sS'file'
p348
S'Caterina-Leonardo.hex'
p349
sS'path'
p350
S'caterina'
p351
sS'unlock_bits'
p352
S'0x3F'
p353
ssS'upload'
p354
(dp355
S'protocol'
p356
S'avr109'
p357
sS'maximum_size'
p358
S'28672'
p359
sS'speed'
p360
S'57600'
p361
sS'disable_flushing'
p362
S'true'
p363
ssS'name'
p364
S'Arduino Leonardo'
p365
saa(lp366
S'esplora'
p367
a(dp368
S'build'
p369
(dp370
S'core'
p371
S'arduino'
p372
sS'f_cpu'
p373
S'16000000L'
p374
sS'vid'
p375
S'0x2341'
p376
sS'pid'
p377
S'0x803C'
p378
sS'variant'
p379
S'leonardo'
p380
sS'mcu'
p381
S'atmega32u4'
p382
ssS'bootloader'
p383
(dp384
S'extended_fuses'
p385
S'0xcb'
p386
sS'high_fuses'
p387
S'0xd8'
p388
sS'low_fuses'
p389
S'0xff'
p390
sS'lock_bits'
p391
S'0x2F'
p392
sS'file'
p393
S'Caterina-Esplora.hex'
p394
sS'path'
p395
S'caterina'
p396
sS'unlock_bits'
p397
S'0x3F'
p398
ssS'upload'
p399
(dp400
S'protocol'
p401
S'avr109'
p402
sS'maximum_size'
p403
S'28672'
p404
sS'speed'
p405
S'57600'
p406
sS'disable_flushing'
p407
S'true'
p408
ssS'name'
p409
S'Arduino Esplora'
p410
saa(lp411
S'micro'
p412
a(dp413
S'build'
p414
(dp415
S'core'
p416
S'arduino'
p417
sS'f_cpu'
p418
S'16000000L'
p419
sS'vid'
p420
S'0x2341'
p421
sS'pid'
p422
S'0x8037'
p423
sS'variant'
p424
S'micro'
p425
sS'mcu'
p426
S'atmega32u4'
p427
ssS'bootloader'
p428
(dp429
S'extended_fuses'
p430
S'0xcb'
p431
sS'high_fuses'
p432
S'0xd8'
p433
sS'low_fuses'
p434
S'0xff'
p435
sS'lock_bits'
p436
S'0x2F'
p437
sS'file'
p438
S'Caterina-Micro.hex'
p439
sS'path'
p440
S'caterina'
p441
sS'unlock_bits'
p442
S'0x3F'
p443
ssS'upload'
p444
(dp445
S'protocol'
p446
S'avr109'
p447
sS'maximum_size'
p448
S'28672'
p449
sS'speed'
p450
S'57600'
p451
sS'disable_flushing'
p452
S'true'
p453
ssS'name'
p454
S'Arduino Micro'
p455
saa(lp456
S'mini328'
p457
a(dp458
S'build'
p459
(dp460
S'core'
p461
S'arduino'
p462
sS'mcu'
p463
S'atmega328p'
p464
sS'f_cpu'
p465
S'16000000L'
p466
sS'variant'
p467
S'eightanaloginputs'
p468
ssS'bootloader'
p469
(dp470
S'extended_fuses'
p471
S'0x05'
p472
sS'high_fuses'
p473
S'0xd8'
p474
sS'low_fuses'
p475
S'0xff'
p476
sS'lock_bits'
p477
S'0x0F'
p478
sS'file'
p479
S'optiboot_atmega328-Mini.hex'
p480
sS'path'
p481
S'optiboot'
p482
sS'unlock_bits'
p483
S'0x3F'
p484
ssS'upload'
p485
(dp486
S'protocol'
p487
S'arduino'
p488
sS'maximum_size'
p489
S'28672'
p490
sS'speed'
p491
S'115200'
p492
ssS'name'
p493
S'Arduino Mini w/ ATmega328'
p494
saa(lp495
S'mini'
p496
a(dp497
S'build'
p498
(dp499
S'core'
p500
S'arduino'
p501
sS'mcu'
p502
S'atmega168'
p503
sS'f_cpu'
p504
S'16000000L'
p505
sS'variant'
p506
S'eightanaloginputs'
p507
ssS'bootloader'
p508
(dp509
S'extended_fuses'
p510
S'0x00'
p511
sS'high_fuses'
p512
S'0xdd'
p513
sS'low_fuses'
p514
S'0xff'
p515
sS'lock_bits'
p516
S'0x0F'
p517
sS'file'
p518
S'ATmegaBOOT_168_ng.hex'
p519
sS'path'
p520
S'atmega'
p521
sS'unlock_bits'
p522
S'0x3F'
p523
ssS'upload'
p524
(dp525
S'protocol'
p526
S'arduino'
p527
sS'maximum_size'
p528
S'14336'
p529
sS'speed'
p530
S'19200'
p531
ssS'name'
p532
S'Arduino Mini w/ ATmega168'
p533
saa(lp534
S'ethernet'
p535
a(dp536
S'build'
p537
(dp538
S'variant'
p539
S'standard'
p540
sS'mcu'
p541
S'atmega328p'
p542
sS'f_cpu'
p543
S'16000000L'
p544
sS'core'
p545
S'arduino'
p546
ssS'bootloader'
p547
(dp548
S'extended_fuses'
p549
S'0x05'
p550
sS'high_fuses'
p551
S'0xde'
p552
sS'low_fuses'
p553
S'0xff'
p554
sS'lock_bits'
p555
S'0x0F'
p556
sS'file'
p557
S'optiboot_atmega328.hex'
p558
sS'path'
p559
S'optiboot'
p560
sS'unlock_bits'
p561
S'0x3F'
p562
ssS'upload'
p563
(dp564
S'protocol'
p565
S'arduino'
p566
sS'maximum_size'
p567
S'32256'
p568
sS'speed'
p569
S'115200'
p570
ssS'name'
p571
S'Arduino Ethernet'
p572
saa(lp573
S'fio'
p574
a(dp575
S'build'
p576
(dp577
S'core'
p578
S'arduino'
p579
sS'mcu'
p580
S'atmega328p'
p581
sS'f_cpu'
p582
S'8000000L'
p583
sS'variant'
p584
S'eightanaloginputs'
p585
ssS'bootloader'
p586
(dp587
S'extended_fuses'
p588
S'0x05'
p589
sS'high_fuses'
p590
S'0xDA'
p591
sS'low_fuses'
p592
S'0xFF'
p593
sS'lock_bits'
p594
S'0x0F'
p595
sS'file'
p596
S'ATmegaBOOT_168_atmega328_pro_8MHz.hex'
p597
sS'path'
p598
S'arduino:atmega'
p599
sS'unlock_bits'
p600
S'0x3F'
p601
ssS'upload'
p602
(dp603
S'protocol'
p604
S'arduino'
p605
sS'maximum_size'
p606
S'30720'
p607
sS'speed'
p608
S'57600'
p609
ssS'name'
p610
S'Arduino Fio'
p611
saa(lp612
S'bt328'
p613
a(dp614
S'build'
p615
(dp616
S'core'
p617
S'arduino'
p618
sS'mcu'
p619
S'atmega328p'
p620
sS'f_cpu'
p621
S'16000000L'
p622
sS'variant'
p623
S'eightanaloginputs'
p624
ssS'bootloader'
p625
(dp626
S'extended_fuses'
p627
S'0x05'
p628
sS'high_fuses'
p629
S'0xd8'
p630
sS'low_fuses'
p631
S'0xff'
p632
sS'lock_bits'
p633
S'0x0F'
p634
sS'file'
p635
S'ATmegaBOOT_168_atmega328_bt.hex'
p636
sS'path'
p637
S'bt'
p638
sS'unlock_bits'
p639
S'0x3F'
p640
ssS'upload'
p641
(dp642
S'protocol'
p643
S'arduino'
p644
sS'maximum_size'
p645
S'28672'
p646
sS'speed'
p647
S'19200'
p648
sS'disable_flushing'
p649
S'true'
p650
ssS'name'
p651
S'Arduino BT w/ ATmega328'
p652
saa(lp653
S'bt'
p654
a(dp655
S'build'
p656
(dp657
S'core'
p658
S'arduino'
p659
sS'mcu'
p660
S'atmega168'
p661
sS'f_cpu'
p662
S'16000000L'
p663
sS'variant'
p664
S'eightanaloginputs'
p665
ssS'bootloader'
p666
(dp667
S'extended_fuses'
p668
S'0x00'
p669
sS'high_fuses'
p670
S'0xdd'
p671
sS'low_fuses'
p672
S'0xff'
p673
sS'lock_bits'
p674
S'0x0F'
p675
sS'file'
p676
S'ATmegaBOOT_168.hex'
p677
sS'path'
p678
S'bt'
p679
sS'unlock_bits'
p680
S'0x3F'
p681
ssS'upload'
p682
(dp683
S'protocol'
p684
S'arduino'
p685
sS'maximum_size'
p686
S'14336'
p687
sS'speed'
p688
S'19200'
p689
sS'disable_flushing'
p690
S'true'
p691
ssS'name'
p692
S'Arduino BT w/ ATmega168'
p693
saa(lp694
S'LilyPadUSB'
p695
a(dp696
S'build'
p697
(dp698
S'core'
p699
S'arduino'
p700
sS'f_cpu'
p701
S'8000000L'
p702
sS'vid'
p703
S'0x1B4F'
p704
sS'pid'
p705
S'0x9208'
p706
sS'variant'
p707
S'leonardo'
p708
sS'mcu'
p709
S'atmega32u4'
p710
ssS'bootloader'
p711
(dp712
S'extended_fuses'
p713
S'0xce'
p714
sS'high_fuses'
p715
S'0xd8'
p716
sS'low_fuses'
p717
S'0xff'
p718
sS'lock_bits'
p719
S'0x2F'
p720
sS'file'
p721
S'Caterina-LilyPadUSB.hex'
p722
sS'path'
p723
S'caterina-LilyPadUSB'
p724
sS'unlock_bits'
p725
S'0x3F'
p726
ssS'upload'
p727
(dp728
S'protocol'
p729
S'avr109'
p730
sS'maximum_size'
p731
S'28672'
p732
sS'speed'
p733
S'57600'
p734
sS'disable_flushing'
p735
S'true'
p736
ssS'name'
p737
S'LilyPad Arduino USB'
p738
saa(lp739
S'lilypad328'
p740
a(dp741
S'build'
p742
(dp743
S'core'
p744
S'arduino'
p745
sS'mcu'
p746
S'atmega328p'
p747
sS'f_cpu'
p748
S'8000000L'
p749
sS'variant'
p750
S'standard'
p751
ssS'bootloader'
p752
(dp753
S'extended_fuses'
p754
S'0x05'
p755
sS'high_fuses'
p756
S'0xDA'
p757
sS'low_fuses'
p758
S'0xFF'
p759
sS'lock_bits'
p760
S'0x0F'
p761
sS'file'
p762
S'ATmegaBOOT_168_atmega328_pro_8MHz.hex'
p763
sS'path'
p764
S'atmega'
p765
sS'unlock_bits'
p766
S'0x3F'
p767
ssS'upload'
p768
(dp769
S'protocol'
p770
S'arduino'
p771
sS'maximum_size'
p772
S'30720'
p773
sS'speed'
p774
S'57600'
p775
ssS'name'
p776
S'LilyPad Arduino w/ ATmega328'
p777
saa(lp778
S'lilypad'
p779
a(dp780
S'build'
p781
(dp782
S'core'
p783
S'arduino'
p784
sS'mcu'
p785
S'atmega168'
p786
sS'f_cpu'
p787
S'8000000L'
p788
sS'variant'
p789
S'standard'
p790
ssS'bootloader'
p791
(dp792
S'extended_fuses'
p793
S'0x00'
p794
sS'high_fuses'
p795
S'0xdd'
p796
sS'low_fuses'
p797
S'0xe2'
p798
sS'lock_bits'
p799
S'0x0F'
p800
sS'file'
p801
S'LilyPadBOOT_168.hex'
p802
sS'path'
p803
S'lilypad'
p804
sS'unlock_bits'
p805
S'0x3F'
p806
ssS'upload'
p807
(dp808
S'protocol'
p809
S'arduino'
p810
sS'maximum_size'
p811
S'14336'
p812
sS'speed'
p813
S'19200'
p814
ssS'name'
p815
S'LilyPad Arduino w/ ATmega168'
p816
saa(lp817
S'pro5v328'
p818
a(dp819
S'build'
p820
(dp821
S'core'
p822
S'arduino'
p823
sS'mcu'
p824
S'atmega328p'
p825
sS'f_cpu'
p826
S'16000000L'
p827
sS'variant'
p828
S'standard'
p829
ssS'bootloader'
p830
(dp831
S'extended_fuses'
p832
S'0x05'
p833
sS'high_fuses'
p834
S'0xDA'
p835
sS'low_fuses'
p836
S'0xFF'
p837
sS'lock_bits'
p838
S'0x0F'
p839
sS'file'
p840
S'ATmegaBOOT_168_atmega328.hex'
p841
sS'path'
p842
S'atmega'
p843
sS'unlock_bits'
p844
S'0x3F'
p845
ssS'upload'
p846
(dp847
S'protocol'
p848
S'arduino'
p849
sS'maximum_size'
p850
S'30720'
p851
sS'speed'
p852
S'57600'
p853
ssS'name'
p854
S'Arduino Pro or Pro Mini (5V, 16 MHz) w/ ATmega328'
p855
saa(lp856
S'pro5v'
p857
a(dp858
S'build'
p859
(dp860
S'core'
p861
S'arduino'
p862
sS'mcu'
p863
S'atmega168'
p864
sS'f_cpu'
p865
S'16000000L'
p866
sS'variant'
p867
S'standard'
p868
ssS'bootloader'
p869
(dp870
S'extended_fuses'
p871
S'0x00'
p872
sS'high_fuses'
p873
S'0xdd'
p874
sS'low_fuses'
p875
S'0xff'
p876
sS'lock_bits'
p877
S'0x0F'
p878
sS'file'
p879
S'ATmegaBOOT_168_diecimila.hex'
p880
sS'path'
p881
S'atmega'
p882
sS'unlock_bits'
p883
S'0x3F'
p884
ssS'upload'
p885
(dp886
S'protocol'
p887
S'arduino'
p888
sS'maximum_size'
p889
S'14336'
p890
sS'speed'
p891
S'19200'
p892
ssS'name'
p893
S'Arduino Pro or Pro Mini (5V, 16 MHz) w/ ATmega168'
p894
saa(lp895
S'pro328'
p896
a(dp897
S'build'
p898
(dp899
S'core'
p900
S'arduino'
p901
sS'mcu'
p902
S'atmega328p'
p903
sS'f_cpu'
p904
S'8000000L'
p905
sS'variant'
p906
S'standard'
p907
ssS'bootloader'
p908
(dp909
S'extended_fuses'
p910
S'0x05'
p911
sS'high_fuses'
p912
S'0xDA'
p913
sS'low_fuses'
p914
S'0xFF'
p915
sS'lock_bits'
p916
S'0x0F'
p917
sS'file'
p918
S'ATmegaBOOT_168_atmega328_pro_8MHz.hex'
p919
sS'path'
p920
S'atmega'
p921
sS'unlock_bits'
p922
S'0x3F'
p923
ssS'upload'
p924
(dp925
S'protocol'
p926
S'arduino'
p927
sS'maximum_size'
p928
S'30720'
p929
sS'speed'
p930
S'57600'
p931
ssS'name'
p932
S'Arduino Pro or Pro Mini (3.3V, 8 MHz) w/ ATmega328'
p933
saa(lp934
S'pro'
p935
a(dp936
S'build'
p937
(dp938
S'core'
p939
S'arduino'
p940
sS'mcu'
p941
S'atmega168'
p942
sS'f_cpu'
p943
S'8000000L'
p944
sS'variant'
p945
S'standard'
p946
ssS'bootloader'
p947
(dp948
S'extended_fuses'
p949
S'0x00'
p950
sS'high_fuses'
p951
S'0xdd'
p952
sS'low_fuses'
p953
S'0xc6'
p954
sS'lock_bits'
p955
S'0x0F'
p956
sS'file'
p957
S'ATmegaBOOT_168_pro_8MHz.hex'
p958
sS'path'
p959
S'atmega'
p960
sS'unlock_bits'
p961
S'0x3F'
p962
ssS'upload'
p963
(dp964
S'protocol'
p965
S'arduino'
p966
sS'maximum_size'
p967
S'14336'
p968
sS'speed'
p969
S'19200'
p970
ssS'name'
p971
S'Arduino Pro or Pro Mini (3.3V, 8 MHz) w/ ATmega168'
p972
saa(lp973
S'atmega168'
p974
a(dp975
S'build'
p976
(dp977
S'core'
p978
S'arduino'
p979
sS'mcu'
p980
S'atmega168'
p981
sS'f_cpu'
p982
S'16000000L'
p983
sS'variant'
p984
S'standard'
p985
ssS'bootloader'
p986
(dp987
S'extended_fuses'
p988
S'0x00'
p989
sS'high_fuses'
p990
S'0xdd'
p991
sS'low_fuses'
p992
S'0xff'
p993
sS'lock_bits'
p994
S'0x0F'
p995
sS'file'
p996
S'ATmegaBOOT_168_ng.hex'
p997
sS'path'
p998
S'atmega'
p999
sS'unlock_bits'
p1000
S'0x3F'
p1001
ssS'upload'
p1002
(dp1003
S'protocol'
p1004
S'arduino'
p1005
sS'maximum_size'
p1006
S'14336'
p1007
sS'speed'
p1008
S'19200'
p1009
ssS'name'
p1010
S'Arduino NG or older w/ ATmega168'
p1011
saa(lp1012
S'atmega8'
p1013
a(dp1014
S'build'
p1015
(dp1016
S'core'
p1017
S'arduino'
p1018
sS'mcu'
p1019
S'atmega8'
p1020
sS'f_cpu'
p1021
S'16000000L'
p1022
sS'variant'
p1023
S'standard'
p1024
ssS'bootloader'
p1025
(dp1026
S'high_fuses'
p1027
S'0xca'
p1028
sS'low_fuses'
p1029
S'0xdf'
p1030
sS'lock_bits'
p1031
S'0x0F'
p1032
sS'file'
p1033
S'ATmegaBOOT-prod-firmware-2009-11-07.hex'
p1034
sS'path'
p1035
S'atmega8'
p1036
sS'unlock_bits'
p1037
S'0x3F'
p1038
ssS'upload'
p1039
(dp1040
S'protocol'
p1041
S'arduino'
p1042
sS'maximum_size'
p1043
S'7168'
p1044
sS'speed'
p1045
S'19200'
p1046
ssS'name'
p1047
S'Arduino NG or older w/ ATmega8'
p1048
saa(lp1049
S'robotControl'
p1050
a(dp1051
S'build'
p1052
(dp1053
S'core'
p1054
S'robot'
p1055
sS'f_cpu'
p1056
S'16000000L'
p1057
sS'vid'
p1058
S'0x2341'
p1059
sS'pid'
p1060
S'0x8038'
p1061
sS'variant'
p1062
S'robot_control'
p1063
sS'mcu'
p1064
S'atmega32u4'
p1065
ssS'bootloader'
p1066
(dp1067
S'extended_fuses'
p1068
S'0xcb'
p1069
sS'high_fuses'
p1070
S'0xd8'
p1071
sS'low_fuses'
p1072
S'0xff'
p1073
sS'lock_bits'
p1074
S'0x2F'
p1075
sS'file'
p1076
S'Caterina-Robot-Control.hex'
p1077
sS'path'
p1078
S'caterina-Arduino_Robot'
p1079
sS'unlock_bits'
p1080
S'0x3F'
p1081
ssS'upload'
p1082
(dp1083
S'protocol'
p1084
S'avr109'
p1085
sS'maximum_size'
p1086
S'28672'
p1087
sS'speed'
p1088
S'57600'
p1089
sS'disable_flushing'
p1090
S'true'
p1091
ssS'name'
p1092
S'Arduino Robot Control'
p1093
saa(lp1094
S'robotMotor'
p1095
a(dp1096
S'build'
p1097
(dp1098
S'core'
p1099
S'robot'
p1100
sS'f_cpu'
p1101
S'16000000L'
p1102
sS'vid'
p1103
S'0x2341'
p1104
sS'pid'
p1105
S'0x8039'
p1106
sS'variant'
p1107
S'robot_motor'
p1108
sS'mcu'
p1109
S'atmega32u4'
p1110
ssS'bootloader'
p1111
(dp1112
S'extended_fuses'
p1113
S'0xcb'
p1114
sS'high_fuses'
p1115
S'0xd8'
p1116
sS'low_fuses'
p1117
S'0xff'
p1118
sS'lock_bits'
p1119
S'0x2F'
p1120
sS'file'
p1121
S'Caterina-Robot-Motor.hex'
p1122
sS'path'
p1123
S'caterina-Arduino_Robot'
p1124
sS'unlock_bits'
p1125
S'0x3F'
p1126
ssS'upload'
p1127
(dp1128
S'protocol'
p1129
S'avr109'
p1130
sS'maximum_size'
p1131
S'28672'
p1132
sS'speed'
p1133
S'57600'
p1134
sS'disable_flushing'
p1135
S'true'
p1136
ssS'name'
p1137
S'Arduino Robot Motor'
p1138
saatp1139
Rp1140
(dp1141
S'default'
p1142
S'uno'
p1143
sbtp1144
a(S'used_libs'
p1145
(lp1146
S'lib/Time'
p1147
aS'lib/VirtualWire'
p1148
aS'/Applications/Arduino.app/Contents/Resources/Java/hardware/arduino/cores/arduino'
p1149
atp1150
a(S'build_dir'
p1151
S'.build/uno'
p1152
tp1153
a(S'cxx'
p1154
S'/Applications/Arduino.app/Contents/Resources/Java/hardware/tools/avr/bin/avr-g++'
p1155
tp1156
a(S'cflags'
p1157
g2
(g3
g4
(lp1158
g8
aS'-ffunction-sections'
p1159
aS'-fdata-sections'
p1160
aS'-g'
p1161
ag6
aS'-w'
p1162
aS'-DF_CPU=16000000L'
p1163
aS'-DARDUINO=100'
p1164
aS'-I/Applications/Arduino.app/Contents/Resources/Java/hardware/arduino/cores/arduino'
p1165
aS'-I/Applications/Arduino.app/Contents/Resources/Java/hardware/arduino/variants/standard'
p1166
aS'-Ilib/Time'
p1167
aS'-Ilib/VirtualWire'
p1168
aS'-Ilib/VirtualWire/doc'
p1169
aS'-Ilib/VirtualWire/util'
p1170
aS'-I/Applications/Arduino.app/Contents/Resources/Java/hardware/arduino/cores/arduino'
p1171
aS'-I/Applications/Arduino.app/Contents/Resources/Java/hardware/arduino/cores/arduino/avr-libc'
p1172
atp1173
Rp1174
tp1175
a(S'cxxflags'
p1176
g2
(g3
g4
(lp1177
S'-fno-exceptions'
p1178
atp1179
Rp1180
tp1181
a(S'arduino_variants_dir'
p1182
S'/Applications/Arduino.app/Contents/Resources/Java/hardware/arduino/variants'
p1183
tp1184
a(S'serial'
p1185
S'/usr/local/bin/picocom'
p1186
tp1187
a(S'stty'
p1188
S'/bin/stty'
p1189
tp1190
a(S'version.txt'
p1191
S'/Applications/Arduino.app/Contents/Resources/Java/lib/version.txt'
p1192
tp1193
a(S'arduino_core_dir'
p1194
g1149
tp1195
a(S'boards.txt'
p1196
S'/Applications/Arduino.app/Contents/Resources/Java/hardware/arduino/boards.txt'
p1197
tp1198
a(S'avrdude.conf'
p1199
S'/Applications/Arduino.app/Contents/Resources/Java/hardware/tools/avr/etc/avrdude.conf'
p1200
tp1201
a(S'deps'
p1202
g2
(g3
g4
(lp1203
S'.build/atmega328/src/dependencies.d'
p1204
aS'.build/atmega328/arduino/dependencies.d'
p1205
aS'.build/atmega328/Time/dependencies.d'
p1206
aS'.build/atmega328/VirtualWire/dependencies.d'
p1207
atp1208
Rp1209
tp1210
a.