(lp0
(S'elfflags'
p1
ccopy_reg
_reconstructor
p2
(cino.utils
SpaceList
p3
c__builtin__
list
p4
(lp5
S'-Os'
p6
aS'-Wl,--gc-sections'
p7
aS'-mmcu=atmega328p'
p8
atp9
Rp10
tp11
a(S'cc'
p12
S'/Applications/Arduino.app/Contents/Resources/Java/hardware/tools/avr/bin/avr-gcc'
p13
tp14
a(S'arduino_libraries_dir'
p15
S'/Applications/Arduino.app/Contents/Resources/Java/libraries'
p16
tp17
a(S'avrdude'
p18
S'/Applications/Arduino.app/Contents/Resources/Java/hardware/tools/avr/bin/avrdude'
p19
tp20
a(S'ar'
p21
S'/Applications/Arduino.app/Contents/Resources/Java/hardware/tools/avr/bin/avr-ar'
p22
tp23
a(S'names'
p24
(dp25
S'cpp'
p26
S'%s.cpp'
p27
sS'obj'
p28
S'%s.o'
p29
sS'deps'
p30
S'%s.d'
p31
sS'lib'
p32
S'lib%s.a'
p33
stp34
a(S'arduino_lib_version'
p35
g2
(cino.environment
Version
p36
c__builtin__
tuple
p37
(I1
I0
tp38
tp39
Rp40
tp41
a(S'objcopy'
p42
S'/Applications/Arduino.app/Contents/Resources/Java/hardware/tools/avr/bin/avr-objcopy'
p43
tp44
a(S'board_models'
p45
cino.environment
BoardModels
p46
((lp47
(lp48
S'uno'
p49
a(dp50
S'bootloader'
p51
(dp52
S'extended_fuses'
p53
S'0x05'
p54
sS'high_fuses'
p55
S'0xde'
p56
sS'low_fuses'
p57
S'0xff'
p58
sS'lock_bits'
p59
S'0x0F'
p60
sS'file'
p61
S'optiboot_atmega328.hex'
p62
sS'path'
p63
S'optiboot'
p64
sS'unlock_bits'
p65
S'0x3F'
p66
ssS'build'
p67
(dp68
S'core'
p69
S'arduino'
p70
sS'mcu'
p71
S'atmega328p'
p72
sS'f_cpu'
p73
S'16000000L'
p74
sS'variant'
p75
S'standard'
p76
ssS'name'
p77
S'Arduino Uno'
p78
sS'upload'
p79
(dp80
S'speed'
p81
S'115200'
p82
sS'maximum_size'
p83
S'32256'
p84
sS'protocol'
p85
S'arduino'
p86
ssaa(lp87
S'atmega328'
p88
a(dp89
S'bootloader'
p90
(dp91
S'extended_fuses'
p92
S'0x05'
p93
sS'high_fuses'
p94
S'0xDA'
p95
sS'low_fuses'
p96
S'0xFF'
p97
sS'lock_bits'
p98
S'0x0F'
p99
sS'file'
p100
S'ATmegaBOOT_168_atmega328.hex'
p101
sS'path'
p102
S'atmega'
p103
sS'unlock_bits'
p104
S'0x3F'
p105
ssS'build'
p106
(dp107
S'core'
p108
S'arduino'
p109
sS'mcu'
p110
S'atmega328p'
p111
sS'f_cpu'
p112
S'16000000L'
p113
sS'variant'
p114
S'standard'
p115
ssS'name'
p116
S'Arduino Duemilanove w/ ATmega328'
p117
sS'upload'
p118
(dp119
S'speed'
p120
S'57600'
p121
sS'maximum_size'
p122
S'30720'
p123
sS'protocol'
p124
S'arduino'
p125
ssaa(lp126
S'diecimila'
p127
a(dp128
S'bootloader'
p129
(dp130
S'extended_fuses'
p131
S'0x00'
p132
sS'high_fuses'
p133
S'0xdd'
p134
sS'low_fuses'
p135
S'0xff'
p136
sS'lock_bits'
p137
S'0x0F'
p138
sS'file'
p139
S'ATmegaBOOT_168_diecimila.hex'
p140
sS'path'
p141
S'atmega'
p142
sS'unlock_bits'
p143
S'0x3F'
p144
ssS'build'
p145
(dp146
S'core'
p147
S'arduino'
p148
sS'mcu'
p149
S'atmega168'
p150
sS'f_cpu'
p151
S'16000000L'
p152
sS'variant'
p153
S'standard'
p154
ssS'name'
p155
S'Arduino Diecimila or Duemilanove w/ ATmega168'
p156
sS'upload'
p157
(dp158
S'speed'
p159
S'19200'
p160
sS'maximum_size'
p161
S'14336'
p162
sS'protocol'
p163
S'arduino'
p164
ssaa(lp165
S'nano328'
p166
a(dp167
S'bootloader'
p168
(dp169
S'extended_fuses'
p170
S'0x05'
p171
sS'high_fuses'
p172
S'0xDA'
p173
sS'low_fuses'
p174
S'0xFF'
p175
sS'lock_bits'
p176
S'0x0F'
p177
sS'file'
p178
S'ATmegaBOOT_168_atmega328.hex'
p179
sS'path'
p180
S'atmega'
p181
sS'unlock_bits'
p182
S'0x3F'
p183
ssS'build'
p184
(dp185
S'core'
p186
S'arduino'
p187
sS'mcu'
p188
S'atmega328p'
p189
sS'f_cpu'
p190
S'16000000L'
p191
sS'variant'
p192
S'eightanaloginputs'
p193
ssS'name'
p194
S'Arduino Nano w/ ATmega328'
p195
sS'upload'
p196
(dp197
S'speed'
p198
S'57600'
p199
sS'maximum_size'
p200
S'30720'
p201
sS'protocol'
p202
S'arduino'
p203
ssaa(lp204
S'nano'
p205
a(dp206
S'bootloader'
p207
(dp208
S'extended_fuses'
p209
S'0x00'
p210
sS'high_fuses'
p211
S'0xdd'
p212
sS'low_fuses'
p213
S'0xff'
p214
sS'lock_bits'
p215
S'0x0F'
p216
sS'file'
p217
S'ATmegaBOOT_168_diecimila.hex'
p218
sS'path'
p219
S'atmega'
p220
sS'unlock_bits'
p221
S'0x3F'
p222
ssS'build'
p223
(dp224
S'core'
p225
S'arduino'
p226
sS'mcu'
p227
S'atmega168'
p228
sS'f_cpu'
p229
S'16000000L'
p230
sS'variant'
p231
S'eightanaloginputs'
p232
ssS'name'
p233
S'Arduino Nano w/ ATmega168'
p234
sS'upload'
p235
(dp236
S'speed'
p237
S'19200'
p238
sS'maximum_size'
p239
S'14336'
p240
sS'protocol'
p241
S'arduino'
p242
ssaa(lp243
S'mega2560'
p244
a(dp245
S'bootloader'
p246
(dp247
S'extended_fuses'
p248
S'0xFD'
p249
sS'high_fuses'
p250
S'0xD8'
p251
sS'low_fuses'
p252
S'0xFF'
p253
sS'lock_bits'
p254
S'0x0F'
p255
sS'file'
p256
S'stk500boot_v2_mega2560.hex'
p257
sS'path'
p258
S'stk500v2'
p259
sS'unlock_bits'
p260
S'0x3F'
p261
ssS'build'
p262
(dp263
S'core'
p264
S'arduino'
p265
sS'mcu'
p266
S'atmega2560'
p267
sS'f_cpu'
p268
S'16000000L'
p269
sS'variant'
p270
S'mega'
p271
ssS'name'
p272
S'Arduino Mega 2560 or Mega ADK'
p273
sS'upload'
p274
(dp275
S'speed'
p276
S'115200'
p277
sS'maximum_size'
p278
S'258048'
p279
sS'protocol'
p280
S'wiring'
p281
ssaa(lp282
S'mega'
p283
a(dp284
S'bootloader'
p285
(dp286
S'extended_fuses'
p287
S'0xF5'
p288
sS'high_fuses'
p289
S'0xDA'
p290
sS'low_fuses'
p291
S'0xFF'
p292
sS'lock_bits'
p293
S'0x0F'
p294
sS'file'
p295
S'ATmegaBOOT_168_atmega1280.hex'
p296
sS'path'
p297
S'atmega'
p298
sS'unlock_bits'
p299
S'0x3F'
p300
ssS'build'
p301
(dp302
S'core'
p303
S'arduino'
p304
sS'mcu'
p305
S'atmega1280'
p306
sS'f_cpu'
p307
S'16000000L'
p308
sS'variant'
p309
S'mega'
p310
ssS'name'
p311
S'Arduino Mega (ATmega1280)'
p312
sS'upload'
p313
(dp314
S'speed'
p315
S'57600'
p316
sS'maximum_size'
p317
S'126976'
p318
sS'protocol'
p319
S'arduino'
p320
ssaa(lp321
S'leonardo'
p322
a(dp323
S'bootloader'
p324
(dp325
S'extended_fuses'
p326
S'0xcb'
p327
sS'high_fuses'
p328
S'0xd8'
p329
sS'low_fuses'
p330
S'0xff'
p331
sS'lock_bits'
p332
S'0x2F'
p333
sS'file'
p334
S'Caterina-Leonardo.hex'
p335
sS'path'
p336
S'caterina'
p337
sS'unlock_bits'
p338
S'0x3F'
p339
ssS'build'
p340
(dp341
S'core'
p342
S'arduino'
p343
sS'f_cpu'
p344
S'16000000L'
p345
sS'vid'
p346
S'0x2341'
p347
sS'pid'
p348
S'0x8036'
p349
sS'variant'
p350
S'leonardo'
p351
sS'mcu'
p352
S'atmega32u4'
p353
ssS'name'
p354
S'Arduino Leonardo'
p355
sS'upload'
p356
(dp357
S'speed'
p358
S'57600'
p359
sS'maximum_size'
p360
S'28672'
p361
sS'protocol'
p362
S'avr109'
p363
sS'disable_flushing'
p364
S'true'
p365
ssaa(lp366
S'esplora'
p367
a(dp368
S'bootloader'
p369
(dp370
S'extended_fuses'
p371
S'0xcb'
p372
sS'high_fuses'
p373
S'0xd8'
p374
sS'low_fuses'
p375
S'0xff'
p376
sS'lock_bits'
p377
S'0x2F'
p378
sS'file'
p379
S'Caterina-Esplora.hex'
p380
sS'path'
p381
S'caterina'
p382
sS'unlock_bits'
p383
S'0x3F'
p384
ssS'build'
p385
(dp386
S'core'
p387
S'arduino'
p388
sS'f_cpu'
p389
S'16000000L'
p390
sS'vid'
p391
S'0x2341'
p392
sS'pid'
p393
S'0x803C'
p394
sS'variant'
p395
S'leonardo'
p396
sS'mcu'
p397
S'atmega32u4'
p398
ssS'name'
p399
S'Arduino Esplora'
p400
sS'upload'
p401
(dp402
S'speed'
p403
S'57600'
p404
sS'maximum_size'
p405
S'28672'
p406
sS'protocol'
p407
S'avr109'
p408
sS'disable_flushing'
p409
S'true'
p410
ssaa(lp411
S'micro'
p412
a(dp413
S'bootloader'
p414
(dp415
S'extended_fuses'
p416
S'0xcb'
p417
sS'high_fuses'
p418
S'0xd8'
p419
sS'low_fuses'
p420
S'0xff'
p421
sS'lock_bits'
p422
S'0x2F'
p423
sS'file'
p424
S'Caterina-Micro.hex'
p425
sS'path'
p426
S'caterina'
p427
sS'unlock_bits'
p428
S'0x3F'
p429
ssS'build'
p430
(dp431
S'core'
p432
S'arduino'
p433
sS'f_cpu'
p434
S'16000000L'
p435
sS'vid'
p436
S'0x2341'
p437
sS'pid'
p438
S'0x8037'
p439
sS'variant'
p440
S'micro'
p441
sS'mcu'
p442
S'atmega32u4'
p443
ssS'name'
p444
S'Arduino Micro'
p445
sS'upload'
p446
(dp447
S'speed'
p448
S'57600'
p449
sS'maximum_size'
p450
S'28672'
p451
sS'protocol'
p452
S'avr109'
p453
sS'disable_flushing'
p454
S'true'
p455
ssaa(lp456
S'mini328'
p457
a(dp458
S'bootloader'
p459
(dp460
S'extended_fuses'
p461
S'0x05'
p462
sS'high_fuses'
p463
S'0xd8'
p464
sS'low_fuses'
p465
S'0xff'
p466
sS'lock_bits'
p467
S'0x0F'
p468
sS'file'
p469
S'optiboot_atmega328-Mini.hex'
p470
sS'path'
p471
S'optiboot'
p472
sS'unlock_bits'
p473
S'0x3F'
p474
ssS'build'
p475
(dp476
S'core'
p477
S'arduino'
p478
sS'mcu'
p479
S'atmega328p'
p480
sS'f_cpu'
p481
S'16000000L'
p482
sS'variant'
p483
S'eightanaloginputs'
p484
ssS'name'
p485
S'Arduino Mini w/ ATmega328'
p486
sS'upload'
p487
(dp488
S'speed'
p489
S'115200'
p490
sS'maximum_size'
p491
S'28672'
p492
sS'protocol'
p493
S'arduino'
p494
ssaa(lp495
S'mini'
p496
a(dp497
S'bootloader'
p498
(dp499
S'extended_fuses'
p500
S'0x00'
p501
sS'high_fuses'
p502
S'0xdd'
p503
sS'low_fuses'
p504
S'0xff'
p505
sS'lock_bits'
p506
S'0x0F'
p507
sS'file'
p508
S'ATmegaBOOT_168_ng.hex'
p509
sS'path'
p510
S'atmega'
p511
sS'unlock_bits'
p512
S'0x3F'
p513
ssS'build'
p514
(dp515
S'core'
p516
S'arduino'
p517
sS'mcu'
p518
S'atmega168'
p519
sS'f_cpu'
p520
S'16000000L'
p521
sS'variant'
p522
S'eightanaloginputs'
p523
ssS'name'
p524
S'Arduino Mini w/ ATmega168'
p525
sS'upload'
p526
(dp527
S'speed'
p528
S'19200'
p529
sS'maximum_size'
p530
S'14336'
p531
sS'protocol'
p532
S'arduino'
p533
ssaa(lp534
S'ethernet'
p535
a(dp536
S'bootloader'
p537
(dp538
S'extended_fuses'
p539
S'0x05'
p540
sS'high_fuses'
p541
S'0xde'
p542
sS'low_fuses'
p543
S'0xff'
p544
sS'lock_bits'
p545
S'0x0F'
p546
sS'file'
p547
S'optiboot_atmega328.hex'
p548
sS'path'
p549
S'optiboot'
p550
sS'unlock_bits'
p551
S'0x3F'
p552
ssS'build'
p553
(dp554
S'f_cpu'
p555
S'16000000L'
p556
sS'mcu'
p557
S'atmega328p'
p558
sS'variant'
p559
S'standard'
p560
sS'core'
p561
S'arduino'
p562
ssS'name'
p563
S'Arduino Ethernet'
p564
sS'upload'
p565
(dp566
S'speed'
p567
S'115200'
p568
sS'maximum_size'
p569
S'32256'
p570
sS'protocol'
p571
S'arduino'
p572
ssaa(lp573
S'fio'
p574
a(dp575
S'bootloader'
p576
(dp577
S'extended_fuses'
p578
S'0x05'
p579
sS'high_fuses'
p580
S'0xDA'
p581
sS'low_fuses'
p582
S'0xFF'
p583
sS'lock_bits'
p584
S'0x0F'
p585
sS'file'
p586
S'ATmegaBOOT_168_atmega328_pro_8MHz.hex'
p587
sS'path'
p588
S'arduino:atmega'
p589
sS'unlock_bits'
p590
S'0x3F'
p591
ssS'build'
p592
(dp593
S'core'
p594
S'arduino'
p595
sS'mcu'
p596
S'atmega328p'
p597
sS'f_cpu'
p598
S'8000000L'
p599
sS'variant'
p600
S'eightanaloginputs'
p601
ssS'name'
p602
S'Arduino Fio'
p603
sS'upload'
p604
(dp605
S'speed'
p606
S'57600'
p607
sS'maximum_size'
p608
S'30720'
p609
sS'protocol'
p610
S'arduino'
p611
ssaa(lp612
S'bt328'
p613
a(dp614
S'bootloader'
p615
(dp616
S'extended_fuses'
p617
S'0x05'
p618
sS'high_fuses'
p619
S'0xd8'
p620
sS'low_fuses'
p621
S'0xff'
p622
sS'lock_bits'
p623
S'0x0F'
p624
sS'file'
p625
S'ATmegaBOOT_168_atmega328_bt.hex'
p626
sS'path'
p627
S'bt'
p628
sS'unlock_bits'
p629
S'0x3F'
p630
ssS'build'
p631
(dp632
S'core'
p633
S'arduino'
p634
sS'mcu'
p635
S'atmega328p'
p636
sS'f_cpu'
p637
S'16000000L'
p638
sS'variant'
p639
S'eightanaloginputs'
p640
ssS'name'
p641
S'Arduino BT w/ ATmega328'
p642
sS'upload'
p643
(dp644
S'speed'
p645
S'19200'
p646
sS'maximum_size'
p647
S'28672'
p648
sS'protocol'
p649
S'arduino'
p650
sS'disable_flushing'
p651
S'true'
p652
ssaa(lp653
S'bt'
p654
a(dp655
S'bootloader'
p656
(dp657
S'extended_fuses'
p658
S'0x00'
p659
sS'high_fuses'
p660
S'0xdd'
p661
sS'low_fuses'
p662
S'0xff'
p663
sS'lock_bits'
p664
S'0x0F'
p665
sS'file'
p666
S'ATmegaBOOT_168.hex'
p667
sS'path'
p668
S'bt'
p669
sS'unlock_bits'
p670
S'0x3F'
p671
ssS'build'
p672
(dp673
S'core'
p674
S'arduino'
p675
sS'mcu'
p676
S'atmega168'
p677
sS'f_cpu'
p678
S'16000000L'
p679
sS'variant'
p680
S'eightanaloginputs'
p681
ssS'name'
p682
S'Arduino BT w/ ATmega168'
p683
sS'upload'
p684
(dp685
S'speed'
p686
S'19200'
p687
sS'maximum_size'
p688
S'14336'
p689
sS'protocol'
p690
S'arduino'
p691
sS'disable_flushing'
p692
S'true'
p693
ssaa(lp694
S'LilyPadUSB'
p695
a(dp696
S'bootloader'
p697
(dp698
S'extended_fuses'
p699
S'0xce'
p700
sS'high_fuses'
p701
S'0xd8'
p702
sS'low_fuses'
p703
S'0xff'
p704
sS'lock_bits'
p705
S'0x2F'
p706
sS'file'
p707
S'Caterina-LilyPadUSB.hex'
p708
sS'path'
p709
S'caterina-LilyPadUSB'
p710
sS'unlock_bits'
p711
S'0x3F'
p712
ssS'build'
p713
(dp714
S'core'
p715
S'arduino'
p716
sS'f_cpu'
p717
S'8000000L'
p718
sS'vid'
p719
S'0x1B4F'
p720
sS'pid'
p721
S'0x9208'
p722
sS'variant'
p723
S'leonardo'
p724
sS'mcu'
p725
S'atmega32u4'
p726
ssS'name'
p727
S'LilyPad Arduino USB'
p728
sS'upload'
p729
(dp730
S'speed'
p731
S'57600'
p732
sS'maximum_size'
p733
S'28672'
p734
sS'protocol'
p735
S'avr109'
p736
sS'disable_flushing'
p737
S'true'
p738
ssaa(lp739
S'lilypad328'
p740
a(dp741
S'bootloader'
p742
(dp743
S'extended_fuses'
p744
S'0x05'
p745
sS'high_fuses'
p746
S'0xDA'
p747
sS'low_fuses'
p748
S'0xFF'
p749
sS'lock_bits'
p750
S'0x0F'
p751
sS'file'
p752
S'ATmegaBOOT_168_atmega328_pro_8MHz.hex'
p753
sS'path'
p754
S'atmega'
p755
sS'unlock_bits'
p756
S'0x3F'
p757
ssS'build'
p758
(dp759
S'core'
p760
S'arduino'
p761
sS'mcu'
p762
S'atmega328p'
p763
sS'f_cpu'
p764
S'8000000L'
p765
sS'variant'
p766
S'standard'
p767
ssS'name'
p768
S'LilyPad Arduino w/ ATmega328'
p769
sS'upload'
p770
(dp771
S'speed'
p772
S'57600'
p773
sS'maximum_size'
p774
S'30720'
p775
sS'protocol'
p776
S'arduino'
p777
ssaa(lp778
S'lilypad'
p779
a(dp780
S'bootloader'
p781
(dp782
S'extended_fuses'
p783
S'0x00'
p784
sS'high_fuses'
p785
S'0xdd'
p786
sS'low_fuses'
p787
S'0xe2'
p788
sS'lock_bits'
p789
S'0x0F'
p790
sS'file'
p791
S'LilyPadBOOT_168.hex'
p792
sS'path'
p793
S'lilypad'
p794
sS'unlock_bits'
p795
S'0x3F'
p796
ssS'build'
p797
(dp798
S'core'
p799
S'arduino'
p800
sS'mcu'
p801
S'atmega168'
p802
sS'f_cpu'
p803
S'8000000L'
p804
sS'variant'
p805
S'standard'
p806
ssS'name'
p807
S'LilyPad Arduino w/ ATmega168'
p808
sS'upload'
p809
(dp810
S'speed'
p811
S'19200'
p812
sS'maximum_size'
p813
S'14336'
p814
sS'protocol'
p815
S'arduino'
p816
ssaa(lp817
S'pro5v328'
p818
a(dp819
S'bootloader'
p820
(dp821
S'extended_fuses'
p822
S'0x05'
p823
sS'high_fuses'
p824
S'0xDA'
p825
sS'low_fuses'
p826
S'0xFF'
p827
sS'lock_bits'
p828
S'0x0F'
p829
sS'file'
p830
S'ATmegaBOOT_168_atmega328.hex'
p831
sS'path'
p832
S'atmega'
p833
sS'unlock_bits'
p834
S'0x3F'
p835
ssS'build'
p836
(dp837
S'core'
p838
S'arduino'
p839
sS'mcu'
p840
S'atmega328p'
p841
sS'f_cpu'
p842
S'16000000L'
p843
sS'variant'
p844
S'standard'
p845
ssS'name'
p846
S'Arduino Pro or Pro Mini (5V, 16 MHz) w/ ATmega328'
p847
sS'upload'
p848
(dp849
S'speed'
p850
S'57600'
p851
sS'maximum_size'
p852
S'30720'
p853
sS'protocol'
p854
S'arduino'
p855
ssaa(lp856
S'pro5v'
p857
a(dp858
S'bootloader'
p859
(dp860
S'extended_fuses'
p861
S'0x00'
p862
sS'high_fuses'
p863
S'0xdd'
p864
sS'low_fuses'
p865
S'0xff'
p866
sS'lock_bits'
p867
S'0x0F'
p868
sS'file'
p869
S'ATmegaBOOT_168_diecimila.hex'
p870
sS'path'
p871
S'atmega'
p872
sS'unlock_bits'
p873
S'0x3F'
p874
ssS'build'
p875
(dp876
S'core'
p877
S'arduino'
p878
sS'mcu'
p879
S'atmega168'
p880
sS'f_cpu'
p881
S'16000000L'
p882
sS'variant'
p883
S'standard'
p884
ssS'name'
p885
S'Arduino Pro or Pro Mini (5V, 16 MHz) w/ ATmega168'
p886
sS'upload'
p887
(dp888
S'speed'
p889
S'19200'
p890
sS'maximum_size'
p891
S'14336'
p892
sS'protocol'
p893
S'arduino'
p894
ssaa(lp895
S'pro328'
p896
a(dp897
S'bootloader'
p898
(dp899
S'extended_fuses'
p900
S'0x05'
p901
sS'high_fuses'
p902
S'0xDA'
p903
sS'low_fuses'
p904
S'0xFF'
p905
sS'lock_bits'
p906
S'0x0F'
p907
sS'file'
p908
S'ATmegaBOOT_168_atmega328_pro_8MHz.hex'
p909
sS'path'
p910
S'atmega'
p911
sS'unlock_bits'
p912
S'0x3F'
p913
ssS'build'
p914
(dp915
S'core'
p916
S'arduino'
p917
sS'mcu'
p918
S'atmega328p'
p919
sS'f_cpu'
p920
S'8000000L'
p921
sS'variant'
p922
S'standard'
p923
ssS'name'
p924
S'Arduino Pro or Pro Mini (3.3V, 8 MHz) w/ ATmega328'
p925
sS'upload'
p926
(dp927
S'speed'
p928
S'57600'
p929
sS'maximum_size'
p930
S'30720'
p931
sS'protocol'
p932
S'arduino'
p933
ssaa(lp934
S'pro'
p935
a(dp936
S'bootloader'
p937
(dp938
S'extended_fuses'
p939
S'0x00'
p940
sS'high_fuses'
p941
S'0xdd'
p942
sS'low_fuses'
p943
S'0xc6'
p944
sS'lock_bits'
p945
S'0x0F'
p946
sS'file'
p947
S'ATmegaBOOT_168_pro_8MHz.hex'
p948
sS'path'
p949
S'atmega'
p950
sS'unlock_bits'
p951
S'0x3F'
p952
ssS'build'
p953
(dp954
S'core'
p955
S'arduino'
p956
sS'mcu'
p957
S'atmega168'
p958
sS'f_cpu'
p959
S'8000000L'
p960
sS'variant'
p961
S'standard'
p962
ssS'name'
p963
S'Arduino Pro or Pro Mini (3.3V, 8 MHz) w/ ATmega168'
p964
sS'upload'
p965
(dp966
S'speed'
p967
S'19200'
p968
sS'maximum_size'
p969
S'14336'
p970
sS'protocol'
p971
S'arduino'
p972
ssaa(lp973
S'atmega168'
p974
a(dp975
S'bootloader'
p976
(dp977
S'extended_fuses'
p978
S'0x00'
p979
sS'high_fuses'
p980
S'0xdd'
p981
sS'low_fuses'
p982
S'0xff'
p983
sS'lock_bits'
p984
S'0x0F'
p985
sS'file'
p986
S'ATmegaBOOT_168_ng.hex'
p987
sS'path'
p988
S'atmega'
p989
sS'unlock_bits'
p990
S'0x3F'
p991
ssS'build'
p992
(dp993
S'core'
p994
S'arduino'
p995
sS'mcu'
p996
S'atmega168'
p997
sS'f_cpu'
p998
S'16000000L'
p999
sS'variant'
p1000
S'standard'
p1001
ssS'name'
p1002
S'Arduino NG or older w/ ATmega168'
p1003
sS'upload'
p1004
(dp1005
S'speed'
p1006
S'19200'
p1007
sS'maximum_size'
p1008
S'14336'
p1009
sS'protocol'
p1010
S'arduino'
p1011
ssaa(lp1012
S'atmega8'
p1013
a(dp1014
S'bootloader'
p1015
(dp1016
S'high_fuses'
p1017
S'0xca'
p1018
sS'low_fuses'
p1019
S'0xdf'
p1020
sS'lock_bits'
p1021
S'0x0F'
p1022
sS'file'
p1023
S'ATmegaBOOT-prod-firmware-2009-11-07.hex'
p1024
sS'path'
p1025
S'atmega8'
p1026
sS'unlock_bits'
p1027
S'0x3F'
p1028
ssS'build'
p1029
(dp1030
S'core'
p1031
S'arduino'
p1032
sS'mcu'
p1033
S'atmega8'
p1034
sS'f_cpu'
p1035
S'16000000L'
p1036
sS'variant'
p1037
S'standard'
p1038
ssS'name'
p1039
S'Arduino NG or older w/ ATmega8'
p1040
sS'upload'
p1041
(dp1042
S'speed'
p1043
S'19200'
p1044
sS'maximum_size'
p1045
S'7168'
p1046
sS'protocol'
p1047
S'arduino'
p1048
ssaa(lp1049
S'robotControl'
p1050
a(dp1051
S'bootloader'
p1052
(dp1053
S'extended_fuses'
p1054
S'0xcb'
p1055
sS'high_fuses'
p1056
S'0xd8'
p1057
sS'low_fuses'
p1058
S'0xff'
p1059
sS'lock_bits'
p1060
S'0x2F'
p1061
sS'file'
p1062
S'Caterina-Robot-Control.hex'
p1063
sS'path'
p1064
S'caterina-Arduino_Robot'
p1065
sS'unlock_bits'
p1066
S'0x3F'
p1067
ssS'build'
p1068
(dp1069
S'core'
p1070
S'robot'
p1071
sS'f_cpu'
p1072
S'16000000L'
p1073
sS'vid'
p1074
S'0x2341'
p1075
sS'pid'
p1076
S'0x8038'
p1077
sS'variant'
p1078
S'robot_control'
p1079
sS'mcu'
p1080
S'atmega32u4'
p1081
ssS'name'
p1082
S'Arduino Robot Control'
p1083
sS'upload'
p1084
(dp1085
S'speed'
p1086
S'57600'
p1087
sS'maximum_size'
p1088
S'28672'
p1089
sS'protocol'
p1090
S'avr109'
p1091
sS'disable_flushing'
p1092
S'true'
p1093
ssaa(lp1094
S'robotMotor'
p1095
a(dp1096
S'bootloader'
p1097
(dp1098
S'extended_fuses'
p1099
S'0xcb'
p1100
sS'high_fuses'
p1101
S'0xd8'
p1102
sS'low_fuses'
p1103
S'0xff'
p1104
sS'lock_bits'
p1105
S'0x2F'
p1106
sS'file'
p1107
S'Caterina-Robot-Motor.hex'
p1108
sS'path'
p1109
S'caterina-Arduino_Robot'
p1110
sS'unlock_bits'
p1111
S'0x3F'
p1112
ssS'build'
p1113
(dp1114
S'core'
p1115
S'robot'
p1116
sS'f_cpu'
p1117
S'16000000L'
p1118
sS'vid'
p1119
S'0x2341'
p1120
sS'pid'
p1121
S'0x8039'
p1122
sS'variant'
p1123
S'robot_motor'
p1124
sS'mcu'
p1125
S'atmega32u4'
p1126
ssS'name'
p1127
S'Arduino Robot Motor'
p1128
sS'upload'
p1129
(dp1130
S'speed'
p1131
S'57600'
p1132
sS'maximum_size'
p1133
S'28672'
p1134
sS'protocol'
p1135
S'avr109'
p1136
sS'disable_flushing'
p1137
S'true'
p1138
ssaatp1139
Rp1140
(dp1141
S'default'
p1142
S'uno'
p1143
sbtp1144
a(S'used_libs'
p1145
(lp1146
S'lib/RCswitch'
p1147
aS'/Applications/Arduino.app/Contents/Resources/Java/hardware/arduino/cores/arduino'
p1148
atp1149
a(S'build_dir'
p1150
S'.build/uno'
p1151
tp1152
a(S'cxx'
p1153
S'/Applications/Arduino.app/Contents/Resources/Java/hardware/tools/avr/bin/avr-g++'
p1154
tp1155
a(S'cflags'
p1156
g2
(g3
g4
(lp1157
g8
aS'-ffunction-sections'
p1158
aS'-fdata-sections'
p1159
aS'-g'
p1160
ag6
aS'-w'
p1161
aS'-DF_CPU=16000000L'
p1162
aS'-DARDUINO=100'
p1163
aS'-I/Applications/Arduino.app/Contents/Resources/Java/hardware/arduino/cores/arduino'
p1164
aS'-I/Applications/Arduino.app/Contents/Resources/Java/hardware/arduino/variants/standard'
p1165
aS'-Ilib/RCswitch'
p1166
aS'-I/Applications/Arduino.app/Contents/Resources/Java/hardware/arduino/cores/arduino'
p1167
aS'-I/Applications/Arduino.app/Contents/Resources/Java/hardware/arduino/cores/arduino/avr-libc'
p1168
atp1169
Rp1170
tp1171
a(S'cxxflags'
p1172
g2
(g3
g4
(lp1173
S'-fno-exceptions'
p1174
atp1175
Rp1176
tp1177
a(S'arduino_variants_dir'
p1178
S'/Applications/Arduino.app/Contents/Resources/Java/hardware/arduino/variants'
p1179
tp1180
a(S'serial'
p1181
S'/usr/local/bin/picocom'
p1182
tp1183
a(S'stty'
p1184
S'/bin/stty'
p1185
tp1186
a(S'version.txt'
p1187
S'/Applications/Arduino.app/Contents/Resources/Java/lib/version.txt'
p1188
tp1189
a(S'arduino_core_dir'
p1190
g1148
tp1191
a(S'boards.txt'
p1192
S'/Applications/Arduino.app/Contents/Resources/Java/hardware/arduino/boards.txt'
p1193
tp1194
a(S'avrdude.conf'
p1195
S'/Applications/Arduino.app/Contents/Resources/Java/hardware/tools/avr/etc/avrdude.conf'
p1196
tp1197
a(S'deps'
p1198
g2
(g3
g4
(lp1199
S'.build/atmega328/src/dependencies.d'
p1200
aS'.build/atmega328/arduino/dependencies.d'
p1201
aS'.build/atmega328/RCswitch/dependencies.d'
p1202
atp1203
Rp1204
tp1205
a.